target datalayout = "e-m:e-p270:32:32-p271:32:32-p272:64:64-i64:64-i128:128-f80:128-n8:16:32:64-S128"
target triple = "x86_64-pc-linux-gnu"

%union.PipeProtoChunk = type { %struct.PipeProtoHeader, [4084 x i8] }
%struct.PipeProtoHeader = type { [2 x i8], i16, i32, i8, [0 x i8] }

@stderr = external global ptr, align 8
@MyProcPid = external global i32, align 4

; Function Attrs: nounwind uwtable
define dso_local void @write_pipe_chunks(ptr noundef %0, i32 noundef %1, i32 noundef %2) #0 {
  %4 = alloca ptr, align 8
  %5 = alloca i32, align 4
  %6 = alloca i32, align 4
  %7 = alloca %union.PipeProtoChunk, align 4
  %8 = alloca i32, align 4
  %9 = alloca i32, align 4
  store ptr %0, ptr %4, align 8
  store i32 %1, ptr %5, align 4
  store i32 %2, ptr %6, align 4
  call void @llvm.lifetime.start.p0(i64 4096, ptr %7) #16
  call void @llvm.lifetime.start.p0(i64 4, ptr %8) #16
  %10 = load ptr, ptr @stderr, align 8
  %11 = call i32 @fileno(ptr noundef %10) #16
  store i32 %11, ptr %8, align 4
  call void @llvm.lifetime.start.p0(i64 4, ptr %9) #16
  %12 = getelementptr inbounds nuw %struct.PipeProtoHeader, ptr %7, i32 0, i32 0
  %13 = getelementptr inbounds [2 x i8], ptr %12, i64 0, i64 1
  store i8 0, ptr %13, align 1
  %14 = getelementptr inbounds nuw %struct.PipeProtoHeader, ptr %7, i32 0, i32 0
  %15 = getelementptr inbounds [2 x i8], ptr %14, i64 0, i64 0
  store i8 0, ptr %15, align 4
  %16 = load i32, ptr @MyProcPid, align 4
  %17 = getelementptr inbounds nuw %struct.PipeProtoHeader, ptr %7, i32 0, i32 2
  store i32 %16, ptr %17, align 4
  %18 = getelementptr inbounds nuw %struct.PipeProtoHeader, ptr %7, i32 0, i32 3
  store i8 0, ptr %18, align 4
  %19 = load i32, ptr %6, align 4
  %20 = icmp eq i32 %19, 1
  br i1 %20, label %21, label %27

21:                                               ; preds = %3
  %22 = getelementptr inbounds nuw %struct.PipeProtoHeader, ptr %7, i32 0, i32 3
  %23 = load i8, ptr %22, align 4
  %24 = zext i8 %23 to i32
  %25 = or i32 %24, 16
  %26 = trunc i32 %25 to i8
  store i8 %26, ptr %22, align 4
  br label %47

27:                                               ; preds = %3
  %28 = load i32, ptr %6, align 4
  %29 = icmp eq i32 %28, 8
  br i1 %29, label %30, label %36

30:                                               ; preds = %27
  %31 = getelementptr inbounds nuw %struct.PipeProtoHeader, ptr %7, i32 0, i32 3
  %32 = load i8, ptr %31, align 4
  %33 = zext i8 %32 to i32
  %34 = or i32 %33, 32
  %35 = trunc i32 %34 to i8
  store i8 %35, ptr %31, align 4
  br label %46

36:                                               ; preds = %27
  %37 = load i32, ptr %6, align 4
  %38 = icmp eq i32 %37, 16
  br i1 %38, label %39, label %45

39:                                               ; preds = %36
  %40 = getelementptr inbounds nuw %struct.PipeProtoHeader, ptr %7, i32 0, i32 3
  %41 = load i8, ptr %40, align 4
  %42 = zext i8 %41 to i32
  %43 = or i32 %42, 64
  %44 = trunc i32 %43 to i8
  store i8 %44, ptr %40, align 4
  br label %45

45:                                               ; preds = %39, %36
  br label %46

46:                                               ; preds = %45, %30
  br label %47

47:                                               ; preds = %46, %21
  br label %48

48:                                               ; preds = %51, %47
  %49 = load i32, ptr %5, align 4
  %50 = icmp sgt i32 %49, 4087
  br i1 %50, label %51, label %63

51:                                               ; preds = %48
  %52 = getelementptr inbounds nuw %struct.PipeProtoHeader, ptr %7, i32 0, i32 1
  store i16 4087, ptr %52, align 2
  %53 = getelementptr inbounds nuw %struct.PipeProtoHeader, ptr %7, i32 0, i32 4
  %54 = getelementptr inbounds [0 x i8], ptr %53, i64 0, i64 0
  %55 = load ptr, ptr %4, align 8
  call void @llvm.memcpy.p0.p0.i64(ptr align 1 %54, ptr align 1 %55, i64 4087, i1 false)
  %56 = load i32, ptr %8, align 4
  %57 = call i64 @write(i32 noundef %56, ptr noundef %7, i64 noundef 4096)
  %58 = trunc i64 %57 to i32
  store i32 %58, ptr %9, align 4
  %59 = load ptr, ptr %4, align 8
  %60 = getelementptr inbounds i8, ptr %59, i64 4087
  store ptr %60, ptr %4, align 8
  %61 = load i32, ptr %5, align 4
  %62 = sub i32 %61, 4087
  store i32 %62, ptr %5, align 4
  br label %48, !llvm.loop !17

63:                                               ; preds = %48
  %64 = getelementptr inbounds nuw %struct.PipeProtoHeader, ptr %7, i32 0, i32 3
  %65 = load i8, ptr %64, align 4
  %66 = zext i8 %65 to i32
  %67 = or i32 %66, 1
  %68 = trunc i32 %67 to i8
  store i8 %68, ptr %64, align 4
  %69 = load i32, ptr %5, align 4
  %70 = trunc i32 %69 to i16
  %71 = getelementptr inbounds nuw %struct.PipeProtoHeader, ptr %7, i32 0, i32 1
  store i16 %70, ptr %71, align 2
  %72 = getelementptr inbounds nuw %struct.PipeProtoHeader, ptr %7, i32 0, i32 4
  %73 = getelementptr inbounds [0 x i8], ptr %72, i64 0, i64 0
  %74 = load ptr, ptr %4, align 8
  %75 = load i32, ptr %5, align 4
  %76 = sext i32 %75 to i64
  call void @llvm.memcpy.p0.p0.i64(ptr align 1 %73, ptr align 1 %74, i64 %76, i1 false)
  %77 = load i32, ptr %8, align 4
  %78 = load i32, ptr %5, align 4
  %79 = sext i32 %78 to i64
  %80 = add i64 9, %79
  %81 = call i64 @write(i32 noundef %77, ptr noundef %7, i64 noundef %80)
  %82 = trunc i64 %81 to i32
  store i32 %82, ptr %9, align 4
  call void @llvm.lifetime.end.p0(i64 4, ptr %9) #16
  call void @llvm.lifetime.end.p0(i64 4, ptr %8) #16
  call void @llvm.lifetime.end.p0(i64 4096, ptr %7) #16
  ret void
}