; Function Attrs: nofree nounwind uwtable
define dso_local void @write_pipe_chunks(ptr noundef readonly captures(none) %0, i32 noundef %1, i32 noundef %2) local_unnamed_addr #26 {
  %4 = alloca %union.PipeProtoChunk, align 4
  call void @llvm.lifetime.start.p0(i64 4096, ptr nonnull %4) #32
  %5 = load ptr, ptr @stderr, align 8
  %6 = tail call i32 @fileno(ptr noundef %5) #32
  %7 = getelementptr inbounds nuw i8, ptr %4, i64 1
  store i8 0, ptr %7, align 1
  store i8 0, ptr %4, align 4
  %8 = load i32, ptr @MyProcPid, align 4
  %9 = getelementptr inbounds nuw i8, ptr %4, i64 4
  store i32 %8, ptr %9, align 4
  %10 = getelementptr inbounds nuw i8, ptr %4, i64 8
  store i8 0, ptr %10, align 4
  switch i32 %2, label %13 [
    i32 1, label %.sink.split
    i32 8, label %11
    i32 16, label %12
  ]

11:                                               ; preds = %3
  br label %.sink.split

12:                                               ; preds = %3
  br label %.sink.split

.sink.split:                                      ; preds = %3, %12, %11
  %.sink = phi i8 [ 32, %11 ], [ 64, %12 ], [ 16, %3 ]
  %.ph = phi i8 [ 33, %11 ], [ 65, %12 ], [ 17, %3 ]
  store i8 %.sink, ptr %10, align 4
  br label %13

13:                                               ; preds = %.sink.split, %3
  %14 = phi i8 [ 1, %3 ], [ %.ph, %.sink.split ]
  %15 = icmp sgt i32 %1, 4087
  br i1 %15, label %.lr.ph, label %._crit_edge

.lr.ph:                                           ; preds = %13
  %16 = getelementptr inbounds nuw i8, ptr %4, i64 2
  %17 = getelementptr inbounds nuw i8, ptr %4, i64 9
  br label %18

18:                                               ; preds = %.lr.ph, %18
  %.015 = phi ptr [ %0, %.lr.ph ], [ %20, %18 ]
  %.01214 = phi i32 [ %1, %.lr.ph ], [ %21, %18 ]
  store i16 4087, ptr %16, align 2
  call void @llvm.memcpy.p0.p0.i64(ptr noundef nonnull align 1 dereferenceable(4087) %17, ptr noundef nonnull align 1 dereferenceable(4087) %.015, i64 4087, i1 false)
  %19 = call i64 @write(i32 noundef %6, ptr noundef nonnull %4, i64 noundef 4096) #32
  %20 = getelementptr inbounds nuw i8, ptr %.015, i64 4087
  %21 = add nsw i32 %.01214, -4087
  %22 = icmp samesign ugt i32 %.01214, 8174
  br i1 %22, label %18, label %._crit_edge, !llvm.loop !16

._crit_edge:                                      ; preds = %18, %13
  %.012.lcssa = phi i32 [ %1, %13 ], [ %21, %18 ]
  %.0.lcssa = phi ptr [ %0, %13 ], [ %20, %18 ]
  store i8 %14, ptr %10, align 4
  %23 = trunc i32 %.012.lcssa to i16
  %24 = getelementptr inbounds nuw i8, ptr %4, i64 2
  store i16 %23, ptr %24, align 2
  %25 = getelementptr inbounds nuw i8, ptr %4, i64 9
  %26 = sext i32 %.012.lcssa to i64
  call void @llvm.memcpy.p0.p0.i64(ptr nonnull align 1 %25, ptr align 1 %.0.lcssa, i64 %26, i1 false)
  %27 = add nsw i64 %26, 9
  %28 = call i64 @write(i32 noundef %6, ptr noundef nonnull %4, i64 noundef %27) #32
  call void @llvm.lifetime.end.p0(i64 4096, ptr nonnull %4) #32
  ret void
}